(dp0
S'boule'
p1
(lp2
I00
aI01
aI00
aI01
aI00
aI00
aI01
aI01
aI01
aI01
aI00
aI00
asS'response_time'
p3
(lp4
NaF0.26856088638305664
aNaF0.43608784675598145
aNaNaF0.2492821216583252
aF0.39970993995666504
aF0.4359700679779053
aF0.5045459270477295
aNaNas.