(dp0
S'boule'
p1
(lp2
I01
aI01
aI00
aI01
aI00
aI01
aI01
aI00
aI00
aI00
aI01
aI00
aI00
asS'response_time'
p3
(lp4
F0.14799904823303223
aF0.04376697540283203
aNaF0.7823278903961182
aNaF-0.000698089599609375
aF0.9506070613861084
aNaNaNaF0.6326971054077148
aNaNas.