(dp0
S'boule'
p1
(lp2
I00
aI01
aI01
aI00
aI01
aI00
aI01
aI01
aI00
aI01
aI00
aI00
aI01
aI01
aI00
aI00
aI01
aI01
asS'response_time'
p3
(lp4
NaF0.32364988327026367
aF0.5892658233642578
aNaF0.3090081214904785
aNaF0.11777782440185547
aF0.5330009460449219
aNaF0.914492130279541
aNaNaF0.08745002746582031
aF-0.03822684288024902
aNaNaF0.2635059356689453
aF0.22370195388793945
as.