(dp0
S'boule'
p1
(lp2
I01
aI01
aI01
aI01
aI01
aI01
aI01
aI00
aI00
aI00
aI01
aI00
aI01
aI01
aI01
aI00
aI01
aI01
aI00
aI00
aI00
aI00
asS'response_time'
p3
(lp4
F0.09548592567443848
aF-0.0003039836883544922
aF0.031388044357299805
aF0.483273983001709
aF0.6699821949005127
aF0.28499913215637207
aF0.4998331069946289
aNaNaNaF0.4354231357574463
aNaF0.32294416427612305
aF0.6571049690246582
aF0.8086299896240234
aNaF0.10718297958374023
aF0.1963949203491211
aNaNaNaNas.