(dp0
S'boule'
p1
(lp2
I01
aI00
aI01
aI01
aI01
aI00
aI01
aI01
aI01
aI01
aI00
aI01
aI00
aI00
aI00
aI00
aI01
aI01
aI01
aI00
aI00
aI00
aI01
aI01
asS'response_time'
p3
(lp4
F0.3907630443572998
aNaF0.5737240314483643
aF0.5223441123962402
aF0.2091200351715088
aNaF0.48305511474609375
aF0.16636419296264648
aF-0.03131389617919922
aF0.2657649517059326
aNaF0.7402200698852539
aNaNaNaNaF0.5517280101776123
aF0.7422349452972412
aF0.17816495895385742
aNaNaNaF0.5027132034301758
aF0.09413409233093262
as.