(dp0
S'boule'
p1
(lp2
I01
aI01
aI00
aI00
aI00
aI01
aI00
aI01
aI01
aI00
aI01
aI00
aI01
aI00
aI00
aI00
aI00
aI01
aI01
aI00
aI01
aI00
aI01
aI01
asS'response_time'
p3
(lp4
F0.45656418800354004
aF0.07784819602966309
aNaNaNaF0.980522871017456
aNaF0.28772616386413574
aF0.3249211311340332
aNaF0.46441102027893066
aNaF0.1904010772705078
aNaNaNaNaF-0.021338939666748047
aF-0.017008066177368164
aNaF0.7794749736785889
aNaF0.485914945602417
aF0.14384698867797852
as.