(dp0
S'boule'
p1
(lp2
I00
aI01
aI00
aI01
aI01
aI01
aI00
aI01
aI00
aI00
aI01
aI00
aI00
aI01
aI00
aI00
aI01
asS'response_time'
p3
(lp4
NaF0.44419384002685547
aNaF0.09589099884033203
aF0.423367977142334
aF0.5726189613342285
aNaF0.41803407669067383
aNaNaF0.8041870594024658
aNaNaF0.6118638515472412
aNaNaF0.26235389709472656
as.