(dp0
S'boule'
p1
(lp2
I01
aI01
aI00
aI00
aI01
aI00
aI00
aI00
aI00
aI00
aI00
aI01
aI01
aI01
aI01
asS'response_time'
p3
(lp4
F0.2658090591430664
aF0.10012102127075195
aNaNaF0.14666509628295898
aNaNaNaNaNaNaF0.8494968414306641
aF0.8966000080108643
aF0.40152502059936523
aF0.004642009735107422
as.