(dp0
S'boule'
p1
(lp2
I01
aI01
aI00
aI01
aI00
aI01
aI01
aI01
asS'response_time'
p3
(lp4
F0.12228202819824219
aF0.45389699935913086
aNaF0.4786241054534912
aNaF-0.028647899627685547
aF0.19725799560546875
aF0.22974205017089844
as.