(dp0
S'boule'
p1
(lp2
I00
aI01
aI00
aI00
aI01
aI01
aI01
aI00
aI01
aI00
aI00
aI00
aI00
aI00
aI00
aI01
aI01
aI00
aI01
aI00
aI01
aI01
asS'response_time'
p3
(lp4
NaF0.29514002799987793
aNaNaF0.7180449962615967
aF0.2599470615386963
aF0.11547398567199707
aNaF-0.07907390594482422
aNaNaNaNaNaNaF0.46929287910461426
aF0.6676981449127197
aNaF0.001422882080078125
aNaF0.9748249053955078
aF0.29259490966796875
as.