(dp0
S'boule'
p1
(lp2
I00
aI00
aI01
aI01
aI01
aI00
aI01
aI00
aI01
aI01
aI00
aI00
aI00
aI00
aI01
aI01
aI00
aI01
aI01
aI01
aI00
aI01
aI01
aI01
asS'response_time'
p3
(lp4
NaNaF0.2649970054626465
aF0.15184497833251953
aF0.015441179275512695
aNaF0.46637892723083496
aNaF0.28275513648986816
aF0.23899102210998535
aNaNaNaNaF0.9611639976501465
aF0.2465670108795166
aNaF0.8195168972015381
aF0.4819190502166748
aF0.6980330944061279
aNaF0.041941165924072266
aF0.9325618743896484
aF0.14332795143127441
as.