(dp0
S'boule'
p1
(lp2
I00
aI00
aI01
aI00
aI01
aI00
aI01
aI01
aI01
aI00
aI00
aI01
aI00
aI01
aI00
aI01
aI01
aI01
aI01
aI00
aI00
aI00
aI00
asS'response_time'
p3
(lp4
NaNaF0.46753621101379395
aNaF0.7872889041900635
aNaF0.8663330078125
aF0.5468130111694336
aF0.09801197052001953
aNaNaF0.8140552043914795
aNaF-0.0028231143951416016
aNaF0.03943800926208496
aF0.7853071689605713
aF0.22985100746154785
aF0.04707694053649902
aNaNaNaNas.