(dp0
S'boule'
p1
(lp2
I01
aI01
aI01
aI01
aI00
aI01
aI00
aI01
aI00
aI01
aI00
aI00
aI00
aI01
aI00
aI01
aI00
aI01
asS'response_time'
p3
(lp4
F0.7164359092712402
aF0.39644312858581543
aF0.5769639015197754
aF0.2970151901245117
aNaF0.14755702018737793
aNaF0.17877197265625
aNaF0.6592299938201904
aNaNaNaF0.2722132205963135
aNaF-0.006106853485107422
aNaF0.9574239253997803
as.