(dp0
S'boule'
p1
(lp2
I01
aI00
aI01
aI00
aI01
aI01
aI01
aI01
aI01
aI00
aI00
aI00
aI01
aI01
aI01
aI01
aI01
aI00
aI01
aI01
aI01
aI01
aI00
aI01
asS'response_time'
p3
(lp4
F0.922727108001709
aNaF0.20998907089233398
aNaF0.053624868392944336
aF-0.026066064834594727
aF-0.049386024475097656
aF0.04191017150878906
aF0.3999969959259033
aNaNaNaF0.7402060031890869
aF0.22791385650634766
aF0.27178001403808594
aF0.30675411224365234
aF0.5025899410247803
aNaF0.25492382049560547
aF0.9524128437042236
aF0.9696180820465088
aF-0.052182912826538086
aNaF0.8879640102386475
as.