(dp0
S'boule'
p1
(lp2
I01
aI01
aI00
aI01
aI00
aI00
aI01
aI01
aI01
aI01
aI01
aI01
aI01
aI00
aI00
aI00
aI01
aI01
aI01
aI01
asS'response_time'
p3
(lp4
F0.6731250286102295
aF0.6343929767608643
aNaF0.5094919204711914
aNaNaF0.5317630767822266
aF-0.07135200500488281
aF0.15118002891540527
aF0.25859999656677246
aF0.28875303268432617
aF0.2259218692779541
aF0.24962592124938965
aNaNaNaF0.19690299034118652
aF0.3459911346435547
aF-0.0635981559753418
aF0.30071187019348145
as.