(dp0
S'boule'
p1
(lp2
I01
aI01
aI01
aI00
aI00
aI01
aI00
aI01
aI00
aI01
aI00
aI01
aI01
aI01
aI01
aI00
aI01
aI00
aI01
aI01
asS'response_time'
p3
(lp4
F0.9909489154815674
aF0.8059630393981934
aF0.23038196563720703
aNaNaF0.06401491165161133
aNaF0.8085699081420898
aNaF0.8394379615783691
aNaF-0.06686902046203613
aF0.2911548614501953
aF0.2704000473022461
aF0.046354055404663086
aNaF0.5084810256958008
aNaF0.1657249927520752
aF0.3562800884246826
as.