(dp0
S'boule'
p1
(lp2
I00
aI00
aI00
aI00
aI00
aI00
aI01
aI00
aI00
aI00
aI00
aI00
aI01
aI00
aI00
aI01
aI01
aI00
aI00
asS'response_time'
p3
(lp4
NaNaNaNaNaNaF0.7524318695068359
aNaNaNaNaNaF0.5414659976959229
aNaNaF0.9517569541931152
aF0.19858503341674805
aNaNas.