(dp0
S'boule'
p1
(lp2
I01
aI00
aI00
aI00
aI00
aI00
aI00
aI00
aI00
aI01
aI00
aI00
aI01
aI00
aI00
aI01
aI00
aI00
aI00
aI00
aI00
aI00
aI00
aI00
asS'response_time'
p3
(lp4
F0.8010680675506592
aNaNaNaNaNaNaNaNaF0.208420991897583
aNaNaF0.6779139041900635
aNaNaF0.5432980060577393
aNaNaNaNaNaNaNaNas.