(dp0
S'boule'
p1
(lp2
I01
aI00
aI01
aI01
aI01
aI00
aI00
aI01
aI00
aI01
aI01
aI00
aI00
aI00
asS'response_time'
p3
(lp4
F0.6564509868621826
aNaF0.48276805877685547
aF-0.04000997543334961
aF0.5063509941101074
aNaNaF0.9632761478424072
aNaF0.7014520168304443
aF0.5983700752258301
aNaNaNas.