(dp0
S'boule'
p1
(lp2
I01
aI01
aI00
aI00
aI00
aI01
aI01
aI00
aI01
aI01
aI01
aI01
aI01
aI00
aI00
aI00
asS'response_time'
p3
(lp4
F0.3538789749145508
aF0.33498311042785645
aNaNaNaF0.25379109382629395
aF0.17616796493530273
aNaF0.2035539150238037
aF0.2805349826812744
aF0.46672701835632324
aF0.29285717010498047
aF-0.017770051956176758
aNaNaNas.