(dp0
S'boule'
p1
(lp2
I00
aI00
aI00
aI00
aI00
aI01
aI01
aI00
aI01
aI00
aI01
aI01
aI00
aI00
aI00
aI00
aI01
aI01
aI01
aI00
aI00
asS'response_time'
p3
(lp4
NaNaNaNaNaF0.602736234664917
aF0.3817300796508789
aNaF0.04607510566711426
aNaF0.2744901180267334
aF0.39301586151123047
aNaNaNaNaF-0.004637956619262695
aF0.29927778244018555
aF-0.019048213958740234
aNaNas.