(dp0
S'boule'
p1
(lp2
I01
aI01
aI00
aI01
aI00
aI01
aI00
aI01
aI01
aI00
aI00
aI00
aI00
aI01
aI01
aI01
asS'response_time'
p3
(lp4
F0.072052001953125
aF0.3724801540374756
aNaF0.1522059440612793
aNaF0.39418601989746094
aNaF0.2969789505004883
aF0.411912202835083
aNaNaNaNaF0.348419189453125
aF0.3450479507446289
aF0.30930304527282715
as.