(dp0
S'boule'
p1
(lp2
I01
aI01
aI01
aI01
aI01
aI00
aI01
aI00
aI00
aI01
aI00
aI01
aI00
aI01
asS'response_time'
p3
(lp4
F0.3286130428314209
aF0.26700711250305176
aF0.31996703147888184
aF0.4209461212158203
aF0.16583991050720215
aNaF0.2533390522003174
aNaNaF0.27387499809265137
aNaF0.21634316444396973
aNaF0.7885980606079102
as.