(dp0
S'boule'
p1
(lp2
I00
aI01
aI01
aI01
aI00
aI01
aI00
aI00
aI01
aI00
aI01
aI00
aI00
aI00
aI01
aI00
aI01
asS'response_time'
p3
(lp4
NaF0.2883009910583496
aF0.4124619960784912
aF0.29966306686401367
aNaF-0.019697904586791992
aNaNaF0.3531961441040039
aNaF0.010314226150512695
aNaNaNaF0.0824899673461914
aNaF0.9803211688995361
as.