(dp0
S'boule'
p1
(lp2
I01
aI00
aI01
aI01
aI01
aI00
aI01
aI01
aI01
aI00
aI01
aI00
aI00
aI01
aI01
aI01
aI00
aI01
aI01
aI01
aI01
aI00
aI00
asS'response_time'
p3
(lp4
F0.27420711517333984
aNaF0.2639651298522949
aF0.33591580390930176
aF-0.011582136154174805
aNaF0.06685090065002441
aF0.3102538585662842
aF-0.03495621681213379
aNaF0.2783989906311035
aNaNaF0.7711811065673828
aF0.07386302947998047
aF0.35456395149230957
aNaF0.2842750549316406
aF0.05888509750366211
aF0.23018503189086914
aF0.12532687187194824
aNaNas.