(dp0
S'boule'
p1
(lp2
I00
aI00
aI01
aI01
aI00
aI00
aI00
aI00
aI01
aI01
aI00
aI00
aI00
aI00
aI01
aI01
aI00
aI00
aI01
aI00
aI01
aI00
asS'response_time'
p3
(lp4
NaNaF0.9988298416137695
aF0.11943387985229492
aNaNaNaNaF0.22963619232177734
aF0.1506359577178955
aNaNaNaNaF0.5513651371002197
aF0.5966010093688965
aNaNaF-0.03172802925109863
aNaF0.5689008235931396
aNas.