(dp0
S'boule'
p1
(lp2
I01
aI01
aI01
aI00
aI00
aI01
aI00
aI00
aI01
aI00
aI00
aI01
aI01
aI01
aI01
aI01
aI00
aI00
aI00
aI00
aI00
aI00
asS'response_time'
p3
(lp4
F-0.024817943572998047
aF0.14288997650146484
aF-0.09247708320617676
aNaNaF0.7173178195953369
aNaNaF0.72222900390625
aNaNaF-0.0684969425201416
aF0.2107539176940918
aF0.26952600479125977
aF-0.08730697631835938
aF0.26856493949890137
aNaNaNaNaNaNas.