(dp0
S'boule'
p1
(lp2
I00
aI01
aI01
aI01
aI00
aI00
aI00
aI01
aI01
aI00
aI00
aI01
aI01
aI00
aI00
aI00
aI00
aI01
aI01
aI00
aI01
asS'response_time'
p3
(lp4
NaF0.8810811042785645
aF0.6687731742858887
aF0.1493391990661621
aNaNaNaF0.7379090785980225
aF0.17244696617126465
aNaNaF0.2747058868408203
aF-0.03661918640136719
aNaNaNaNaF0.10466694831848145
aF0.1366119384765625
aNaF0.17595696449279785
as.