(dp0
S'boule'
p1
(lp2
I01
aI00
aI00
aI01
aI01
aI01
aI00
aI01
aI00
aI00
aI00
aI00
aI01
aI00
aI00
aI01
aI00
aI01
aI01
aI00
aI00
aI00
asS'response_time'
p3
(lp4
F-0.00421595573425293
aNaNaF0.26830601692199707
aF0.2226428985595703
aF0.11446595191955566
aNaF0.6422429084777832
aNaNaNaNaF0.5647351741790771
aNaNaF0.9277341365814209
aNaF0.14050602912902832
aF0.28261399269104004
aNaNaNas.