(dp0
S'boule'
p1
(lp2
I01
aI01
aI00
aI00
aI01
aI01
aI00
aI01
aI00
aI01
aI00
aI00
aI00
aI00
aI01
aI01
aI00
aI00
aI01
aI00
aI00
aI00
aI01
asS'response_time'
p3
(lp4
F0.3113842010498047
aF0.15788006782531738
aNaNaF0.5028448104858398
aF0.1470808982849121
aNaF0.20437908172607422
aNaF-0.028012990951538086
aNaNaNaNaF0.45279788970947266
aF0.3014819622039795
aNaNaF0.685215950012207
aNaNaNaF0.524744987487793
as.