(dp0
S'boule'
p1
(lp2
I00
aI01
aI01
aI01
aI01
aI01
aI01
aI01
aI01
aI00
aI01
aI01
aI01
aI00
aI00
aI01
aI00
aI00
aI01
aI01
aI00
aI00
aI01
aI01
aI00
aI01
aI01
aI00
aI00
aI00
aI01
aI01
asS'response_time'
p3
(lp4
NaF0.3067970275878906
aF0.2830770015716553
aF0.032937049865722656
aF0.6381049156188965
aF0.33244800567626953
aF0.030572891235351562
aF0.31587696075439453
aF0.08260083198547363
aNaF0.4321889877319336
aF0.19924211502075195
aF0.6186020374298096
aNaNaF0.06631588935852051
aNaNaF0.5829591751098633
aF0.18255400657653809
aNaNaF0.7206168174743652
aF0.38789796829223633
aNaF0.8330929279327393
aF0.11596083641052246
aNaNaNaF0.8822510242462158
aF0.7203571796417236
asS'white_time'
p5
(lp6
F1541606176.903225
aF1541606178.380716
aF1541606180.51878
aF1541606182.280361
aF1541606184.214218
aF1541606185.797927
aF1541606187.235119
aF1541606188.586467
aF1541606191.054588
aF1541606192.415256
aF1541606193.798771
aF1541606195.282102
aF1541606197.315756
aF1541606200.170086
aF1541606202.416154
aF1541606204.887139
as.