(dp0
S'boule'
p1
(lp2
I01
aI00
aI01
aI01
aI01
aI01
aI01
aI01
aI01
aI01
aI01
aI01
aI01
aI00
aI00
aI01
aI00
aI01
aI00
aI01
asS'response_time'
p3
(lp4
F0.05945897102355957
aNaF0.8460938930511475
aF0.4142768383026123
aF0.5146338939666748
aF0.8127250671386719
aF0.8309929370880127
aF0.16962409019470215
aF0.4370400905609131
aF0.01862502098083496
aF0.003473043441772461
aF0.6943581104278564
aF0.6689250469207764
aNaNaF0.6735880374908447
aNaF0.2774670124053955
aNaF0.29717087745666504
as.