(dp0
S'boule'
p1
(lp2
I00
aI01
aI01
aI01
aI01
aI01
aI00
aI00
aI01
aI00
aI01
aI00
aI00
aI00
aI00
aI01
asS'response_time'
p3
(lp4
NaF0.19504690170288086
aF0.7533929347991943
aF0.2645549774169922
aF-0.01798081398010254
aF0.1938459873199463
aNaNaF-0.04305005073547363
aNaF0.5296690464019775
aNaNaNaNaF0.4053769111633301
as.