(dp0
S'boule'
p1
(lp2
I00
aI00
aI01
aI01
aI01
aI00
aI00
aI01
aI01
aI01
aI00
aI00
aI01
aI00
aI01
aI01
aI00
aI00
aI01
aI01
asS'response_time'
p3
(lp4
NaNaF0.26375889778137207
aF0.18049883842468262
aF0.026534080505371094
aNaNaF0.0029039382934570312
aF0.9774949550628662
aF0.22674894332885742
aNaNaF0.3349788188934326
aNaF0.6462459564208984
aF0.1751859188079834
aNaNaF0.4244070053100586
aF0.2731039524078369
as.