(dp0
S'boule'
p1
(lp2
I00
aI01
aI00
aI01
aI01
aI00
aI01
aI00
aI01
aI00
aI01
aI00
aI00
aI00
aI00
aI01
aI01
aI01
aI00
aI01
asS'response_time'
p3
(lp4
NaF0.07067990303039551
aNaF0.20748114585876465
aF0.4916701316833496
aNaF0.46737003326416016
aNaF0.8044259548187256
aNaF0.37334299087524414
aNaNaNaNaF0.46047210693359375
aF0.1223459243774414
aF0.727802038192749
aNaF0.7942512035369873
as.