(dp0
S'boule'
p1
(lp2
I00
aI01
aI00
aI01
aI01
aI01
aI01
aI00
aI01
aI00
aI00
aI01
aI01
asS'response_time'
p3
(lp4
NaF0.36795997619628906
aNaF0.0610809326171875
aF0.5368762016296387
aF0.04471707344055176
aF0.2356870174407959
aNaF0.4740781784057617
aNaNaF0.016427040100097656
aF0.1994478702545166
as.