(dp0
S'boule'
p1
(lp2
I01
aI01
aI01
aI00
aI01
aI01
aI00
aI01
aI00
aI01
aI01
aI00
aI00
aI00
aI00
aI00
aI01
aI00
aI00
aI00
aI00
aI01
aI01
aI00
aI00
aI01
asS'response_time'
p3
(lp4
F0.6527559757232666
aF0.597775936126709
aF0.6563680171966553
aNaF0.39844298362731934
aF0.037368059158325195
aNaF0.9721357822418213
aNaF0.5070672035217285
aF0.008536100387573242
aNaNaNaNaNaF-0.001458883285522461
aNaNaNaNaF0.4951200485229492
aF0.3805549144744873
aNaNaF0.4244680404663086
as.