(dp0
S'boule'
p1
(lp2
I01
aI00
aI00
aI00
aI00
aI01
aI00
aI00
aI01
aI01
aI00
aI00
aI00
aI01
aI01
aI01
aI01
aI00
aI01
aI01
aI00
aI00
aI01
asS'response_time'
p3
(lp4
F0.8110289573669434
aNaNaNaNaF0.015234947204589844
aNaNaF0.7770822048187256
aF0.4036681652069092
aNaNaNaF0.03790020942687988
aF0.2888331413269043
aF0.30042099952697754
aF0.018293142318725586
aNaF0.26645803451538086
aF0.34140801429748535
aNaNaF0.24443793296813965
as.