(dp0
S'boule'
p1
(lp2
I00
aI01
aI00
aI00
aI01
aI00
aI01
aI01
aI00
aI01
aI01
aI00
aI00
aI00
aI00
aI01
aI00
aI01
asS'response_time'
p3
(lp4
NaF0.11780595779418945
aNaNaF0.16905713081359863
aNaF0.36034202575683594
aF0.12472820281982422
aNaF0.1615910530090332
aF0.32803797721862793
aNaNaNaNaF0.5717101097106934
aNaF0.4344050884246826
as.