(dp0
S'boule'
p1
(lp2
I01
aI00
aI01
aI01
aI00
aI00
aI00
aI00
aI00
aI01
aI00
aI00
asS'response_time'
p3
(lp4
F0.1463911533355713
aNaF0.20687007904052734
aF0.0196380615234375
aNaNaNaNaNaF-0.05910611152648926
aNaNas.