(dp0
S'boule'
p1
(lp2
I01
aI00
aI01
aI01
aI00
aI00
aI00
aI01
aI00
aI01
aI01
aI01
aI00
aI00
aI01
aI01
aI00
asS'response_time'
p3
(lp4
F0.45787692070007324
aNaF0.14435696601867676
aF0.9536640644073486
aNaNaNaF-0.03819012641906738
aNaF0.2055189609527588
aF0.31062984466552734
aF0.06884193420410156
aNaNaF0.19855690002441406
aF0.3827979564666748
aNas.