(dp0
S'boule'
p1
(lp2
I00
aI01
aI01
aI01
aI00
aI01
aI01
aI01
aI00
aI00
aI01
aI00
aI00
aI00
aI00
aI01
aI00
asS'response_time'
p3
(lp4
NaF0.4787750244140625
aF0.03710293769836426
aF0.13928008079528809
aNaF0.13909292221069336
aF0.9635579586029053
aF0.4185299873352051
aNaNaF0.0559389591217041
aNaNaNaNaF0.3605329990386963
aNas.