(dp0
S'boule'
p1
(lp2
I00
aI01
aI01
aI01
aI00
aI00
aI01
aI00
aI01
aI01
aI01
aI01
aI01
aI01
asS'response_time'
p3
(lp4
NaF0.4212169647216797
aF0.45539212226867676
aF0.2471771240234375
aNaNaF0.14518308639526367
aNaF-0.030169963836669922
aF0.04613614082336426
aF0.1261730194091797
aF0.24941706657409668
aF0.3304159641265869
aF-0.0980830192565918
as.