(dp0
S'boule'
p1
(lp2
I01
aI00
aI01
aI00
aI00
aI00
aI00
aI00
aI00
aI00
aI01
aI00
aI00
aI01
aI00
aI01
aI01
aI01
asS'response_time'
p3
(lp4
F0.6714308261871338
aNaF0.16806507110595703
aNaNaNaNaNaNaNaF0.4743068218231201
aNaNaF0.4737410545349121
aNaF0.2981278896331787
aF0.5217490196228027
aF0.5197539329528809
as.