(dp0
S'boule'
p1
(lp2
I00
aI00
aI00
aI00
aI01
aI01
aI00
aI01
aI00
aI01
aI00
aI01
aI00
asS'response_time'
p3
(lp4
NaNaNaNaF0.771975040435791
aF0.7561140060424805
aNaF0.51108717918396
aNaF0.360090970993042
aNaF-0.048738956451416016
aNas.