(dp0
S'boule'
p1
(lp2
I00
aI01
aI00
aI00
aI01
aI00
aI00
aI00
aI01
aI01
aI01
aI01
aI00
aI01
aI01
aI00
aI00
aI01
aI01
aI01
aI00
aI01
aI01
asS'response_time'
p3
(lp4
NaF0.370959997177124
aNaNaF-0.02372908592224121
aNaNaNaF0.6030371189117432
aF0.08876514434814453
aF0.24347996711730957
aF0.05288386344909668
aNaF0.698951005935669
aF0.2955188751220703
aNaNaF0.01999497413635254
aF0.7601509094238281
aF0.9146840572357178
aNaF0.5885159969329834
aF0.6678938865661621
as.